; Function Attrs: mustprogress uwtable
define noundef zeroext i1 @_ZN8nanobind6detail8obj_compEP7_objectS2_i(ptr noundef %0, ptr noundef %1, i32 noundef %2) local_unnamed_addr #15 {
  %4 = tail call i32 @PyObject_RichCompareBool(ptr noundef %0, ptr noundef %1, i32 noundef %2)
  %5 = icmp eq i32 %4, -1
  br i1 %5, label %6, label %7

6:                                                ; preds = %3
  tail call void @_ZN8nanobind6detail18raise_python_errorEv() #28
  unreachable

7:                                                ; preds = %3
  %8 = icmp eq i32 %4, 1
  ret i1 %8
}